target datalayout = "e-m:e-p270:32:32-p271:32:32-p272:64:64-i64:64-i128:128-f80:128-n8:16:32:64-S128"
target triple = "x86_64-pc-linux-gnu"

%struct.AFM_KernPairRec_ = type { i32, i32, i32, i32 }

; Function Attrs: nounwind uwtable
define internal i32 @afm_compare_kern_pairs(ptr noundef %0, ptr noundef %1) #0 {
  %3 = alloca i32, align 4
  %4 = alloca ptr, align 8
  %5 = alloca ptr, align 8
  %6 = alloca ptr, align 8
  %7 = alloca ptr, align 8
  %8 = alloca i64, align 8
  %9 = alloca i64, align 8
  store ptr %0, ptr %4, align 8
  store ptr %1, ptr %5, align 8
  %10 = load ptr, ptr %4, align 8
  store ptr %10, ptr %6, align 8
  %11 = load ptr, ptr %5, align 8
  store ptr %11, ptr %7, align 8
  %12 = load ptr, ptr %6, align 8
  %13 = getelementptr inbounds %struct.AFM_KernPairRec_, ptr %12, i32 0, i32 0
  %14 = load i32, ptr %13, align 4
  %15 = zext i32 %14 to i64
  %16 = shl i64 %15, 16
  %17 = load ptr, ptr %6, align 8
  %18 = getelementptr inbounds %struct.AFM_KernPairRec_, ptr %17, i32 0, i32 1
  %19 = load i32, ptr %18, align 4
  %20 = zext i32 %19 to i64
  %21 = or i64 %16, %20
  store i64 %21, ptr %8, align 8
  %22 = load ptr, ptr %7, align 8
  %23 = getelementptr inbounds %struct.AFM_KernPairRec_, ptr %22, i32 0, i32 0
  %24 = load i32, ptr %23, align 4
  %25 = zext i32 %24 to i64
  %26 = shl i64 %25, 16
  %27 = load ptr, ptr %7, align 8
  %28 = getelementptr inbounds %struct.AFM_KernPairRec_, ptr %27, i32 0, i32 1
  %29 = load i32, ptr %28, align 4
  %30 = zext i32 %29 to i64
  %31 = or i64 %26, %30
  store i64 %31, ptr %9, align 8
  %32 = load i64, ptr %8, align 8
  %33 = load i64, ptr %9, align 8
  %34 = icmp ugt i64 %32, %33
  br i1 %34, label %35, label %36

35:                                               ; preds = %2
  store i32 1, ptr %3, align 4
  br label %42

36:                                               ; preds = %2
  %37 = load i64, ptr %8, align 8
  %38 = load i64, ptr %9, align 8
  %39 = icmp ult i64 %37, %38
  br i1 %39, label %40, label %41

40:                                               ; preds = %36
  store i32 -1, ptr %3, align 4
  br label %42

41:                                               ; preds = %36
  store i32 0, ptr %3, align 4
  br label %42

42:                                               ; preds = %41, %40, %35
  %43 = load i32, ptr %3, align 4
  ret i32 %43
}