; Function Attrs: mustprogress nofree norecurse nosync nounwind willreturn memory(argmem: read) uwtable
define internal range(i32 -1, 2) i32 @afm_compare_kern_pairs(ptr noundef readonly captures(none) %0, ptr noundef readonly captures(none) %1) #13 {
  %3 = load i32, ptr %0, align 4
  %4 = zext i32 %3 to i64
  %5 = shl nuw nsw i64 %4, 16
  %6 = getelementptr inbounds nuw i8, ptr %0, i64 4
  %7 = load i32, ptr %6, align 4
  %8 = zext i32 %7 to i64
  %9 = or i64 %5, %8
  %10 = load i32, ptr %1, align 4
  %11 = zext i32 %10 to i64
  %12 = shl nuw nsw i64 %11, 16
  %13 = getelementptr inbounds nuw i8, ptr %1, i64 4
  %14 = load i32, ptr %13, align 4
  %15 = zext i32 %14 to i64
  %16 = or i64 %12, %15
  %.0 = tail call i32 @llvm.ucmp.i32.i64(i64 %9, i64 %16)
  ret i32 %.0
}